; Function Attrs: mustprogress uwtable
define internal fastcc noundef double @_ZL19compute_zone_offsetPN11pj_imoll_ns13pj_imoll_dataEiiddd(ptr noundef nonnull readonly captures(none) %0, i32 noundef range(i32 2, 7) %1, i32 noundef range(i32 1, 3) %2, double noundef %3, double noundef %4) unnamed_addr #0 {
  %6 = add nsw i32 %1, -1
  %7 = zext nneg i32 %6 to i64
  %8 = getelementptr inbounds nuw [6 x ptr], ptr %0, i64 0, i64 %7
  %9 = load ptr, ptr %8, align 8, !tbaa !41
  %10 = getelementptr inbounds nuw i8, ptr %9, i64 440
  %11 = load double, ptr %10, align 8, !tbaa !45
  %12 = fsub double %3, %11
  %13 = add nsw i32 %2, -1
  %14 = zext nneg i32 %13 to i64
  %15 = getelementptr inbounds nuw [6 x ptr], ptr %0, i64 0, i64 %14
  %16 = load ptr, ptr %15, align 8, !tbaa !41
  %17 = getelementptr inbounds nuw i8, ptr %16, i64 440
  %18 = load double, ptr %17, align 8, !tbaa !45
  %19 = fsub double %3, %18
  %20 = getelementptr inbounds nuw i8, ptr %9, i64 104
  %21 = load ptr, ptr %20, align 8, !tbaa !55
  %22 = tail call { double, double } %21(double %12, double %4, ptr noundef %9)
  %23 = extractvalue { double, double } %22, 0
  %24 = load ptr, ptr %15, align 8, !tbaa !41
  %25 = getelementptr inbounds nuw i8, ptr %24, i64 104
  %26 = load ptr, ptr %25, align 8, !tbaa !55
  %27 = tail call { double, double } %26(double %19, double 1.000000e-10, ptr noundef %24)
  %28 = extractvalue { double, double } %27, 0
  %29 = load ptr, ptr %15, align 8, !tbaa !41
  %30 = getelementptr inbounds nuw i8, ptr %29, i64 456
  %31 = load double, ptr %30, align 8, !tbaa !43
  %32 = fadd double %28, %31
  %33 = load ptr, ptr %8, align 8, !tbaa !41
  %34 = getelementptr inbounds nuw i8, ptr %33, i64 456
  %35 = load double, ptr %34, align 8, !tbaa !43
  %36 = fadd double %23, %35
  %37 = fsub double %32, %36
  ret double %37
}